---
triple:          'x86_64-apple-darwin'
binary-path:     '/Users/miyako/Documents/GitHub/opc-parser/macOS/opc-parser'
relocations:
  - { offset: 0x10802, size: 0x8, addend: 0x0, symName: __ZNSt3__124__put_character_sequenceB8ne180100IcNS_11char_traitsIcEEEERNS_13basic_ostreamIT_T0_EES7_PKS4_m, symObjAddr: 0x3CE1, symBinAddr: 0x10000478B, symSize: 0x150 }
  - { offset: 0x1276C, size: 0x8, addend: 0x0, symName: __ZNSt3__128__exception_guard_exceptionsINS_29_AllocatorDestroyRangeReverseINS_9allocatorINS_12basic_stringIcNS_11char_traitsIcEENS2_IcEEEEEENS_16reverse_iteratorIPS7_EEEEED2B8ne180100Ev, symObjAddr: 0x39DE, symBinAddr: 0x100004598, symSize: 0x1A }
  - { offset: 0x1277F, size: 0x8, addend: 0x0, symName: __ZNSt3__119__allocate_at_leastB8ne180100INS_9allocatorIP8_xmlNodeEEEENS_19__allocation_resultINS_16allocator_traitsIT_E7pointerEEERS7_m, symObjAddr: 0x3896, symBinAddr: 0x100004488, symSize: 0x2E }
  - { offset: 0x12806, size: 0x8, addend: 0x0, symName: __ZNSt3__16vectorINS_12basic_stringIcNS_11char_traitsIcEENS_9allocatorIcEEEENS4_IS6_EEE26__swap_out_circular_bufferERNS_14__split_bufferIS6_RS7_EE, symObjAddr: 0x38C4, symBinAddr: 0x1000044B6, symSize: 0xD2 }
  - { offset: 0x1286F, size: 0x8, addend: 0x0, symName: __ZNSt3__135__uninitialized_allocator_copy_implB8ne180100INS_9allocatorI3RunEEPS2_S4_S4_EET2_RT_T0_T1_S5_, symObjAddr: 0x2EEE, symBinAddr: 0x100003B18, symSize: 0xA4 }
  - { offset: 0x12DFD, size: 0x8, addend: 0x0, symName: __ZNSt3__120__throw_length_errorB8ne180100EPKc, symObjAddr: 0x255C, symBinAddr: 0x1000031BE, symSize: 0x4C }
  - { offset: 0x13A4D, size: 0x8, addend: 0x0, symName: __ZNSt3__142__uninitialized_allocator_move_if_noexceptB8ne180100INS_9allocatorI4PageEENS_16reverse_iteratorIPS2_EES6_S6_EET2_RT_T0_T1_S7_, symObjAddr: 0x3256, symBinAddr: 0x100003E48, symSize: 0x90 }
  - { offset: 0x13BA0, size: 0x8, addend: 0x0, symName: __ZNSt3__135__uninitialized_allocator_copy_implB8ne180100INS_9allocatorI9ParagraphEEPS2_S4_S4_EET2_RT_T0_T1_S5_, symObjAddr: 0x2D3A, symBinAddr: 0x10000399C, symSize: 0xB6 }
  - { offset: 0x13E54, size: 0x8, addend: 0x0, symName: __ZNSt3__119__allocate_at_leastB8ne180100INS_9allocatorI9ParagraphEEEENS_19__allocation_resultINS_16allocator_traitsIT_E7pointerEEERS6_m, symObjAddr: 0x2D02, symBinAddr: 0x100003964, symSize: 0x38 }
  - { offset: 0x13EF1, size: 0x8, addend: 0x0, symName: __ZNSt3__135__uninitialized_allocator_copy_implB8ne180100INS_9allocatorI9ParagraphEEPS2_S4_S4_EET2_RT_T0_T1_S5_, symObjAddr: 0x2D3A, symBinAddr: 0x10000399C, symSize: 0xB6 }
  - { offset: 0x140E9, size: 0x8, addend: 0x0, symName: __ZNSt3__135__uninitialized_allocator_copy_implB8ne180100INS_9allocatorI3RunEEPS2_S4_S4_EET2_RT_T0_T1_S5_, symObjAddr: 0x2EEE, symBinAddr: 0x100003B18, symSize: 0xA4 }
  - { offset: 0x14AC2, size: 0x8, addend: 0x0, symName: __ZNSt3__142__uninitialized_allocator_move_if_noexceptB8ne180100INS_9allocatorI4PageEENS_16reverse_iteratorIPS2_EES6_S6_EET2_RT_T0_T1_S7_, symObjAddr: 0x3256, symBinAddr: 0x100003E48, symSize: 0x90 }
  - { offset: 0x14FC0, size: 0x8, addend: 0x0, symName: __ZNSt3__142__uninitialized_allocator_move_if_noexceptB8ne180100INS_9allocatorI9ParagraphEENS_16reverse_iteratorIPS2_EES6_S6_EET2_RT_T0_T1_S7_, symObjAddr: 0x35A5, symBinAddr: 0x100004197, symSize: 0x91 }
  - { offset: 0x158BF, size: 0x8, addend: 0x0, symName: __ZNSt3__116__pad_and_outputB8ne180100IcNS_11char_traitsIcEEEENS_19ostreambuf_iteratorIT_T0_EES6_PKS4_S8_S8_RNS_8ios_baseES4_, symObjAddr: 0x3E31, symBinAddr: 0x1000048DB, symSize: 0x10B }
  - { offset: 0x16F38, size: 0x8, addend: 0x0, symName: __ZSt28__throw_bad_array_new_lengthB8ne180100v, symObjAddr: 0x25CB, symBinAddr: 0x10000322D, symSize: 0x31 }
  - { offset: 0x19899, size: 0x8, addend: 0x0, symName: __ZNSt3__16vectorI4PageNS_9allocatorIS1_EEE26__swap_out_circular_bufferERNS_14__split_bufferIS1_RS3_EE, symObjAddr: 0x3194, symBinAddr: 0x100003DBE, symSize: 0x7A }
  - { offset: 0x19A3A, size: 0x8, addend: 0x0, symName: __ZNSt3__16vectorI9ParagraphNS_9allocatorIS1_EEE26__swap_out_circular_bufferERNS_14__split_bufferIS1_RS3_EE, symObjAddr: 0x352C, symBinAddr: 0x10000411E, symSize: 0x79 }
  - { offset: 0x19BC4, size: 0x8, addend: 0x0, symName: __ZNSt3__16vectorI3RunNS_9allocatorIS1_EEE26__swap_out_circular_bufferERNS_14__split_bufferIS1_RS3_EE, symObjAddr: 0x36FE, symBinAddr: 0x1000042F0, symSize: 0xD2 }
  - { offset: 0x1A507, size: 0x8, addend: 0x0, symName: __ZNSt3__16vectorINS_12basic_stringIcNS_11char_traitsIcEENS_9allocatorIcEEEENS4_IS6_EEE26__swap_out_circular_bufferERNS_14__split_bufferIS6_RS7_EE, symObjAddr: 0x38C4, symBinAddr: 0x1000044B6, symSize: 0xD2 }
  - { offset: 0x1C6F9, size: 0x8, addend: 0x0, symName: _main, symObjAddr: 0x0, symBinAddr: 0x100000C70, symSize: 0x17AA }
  - { offset: 0x2308E, size: 0x8, addend: 0x0, symName: __ZNSt3__16vectorIhNS_9allocatorIhEEE8__appendEm, symObjAddr: 0x25FC, symBinAddr: 0x10000325E, symSize: 0x12E }
  - { offset: 0x2369C, size: 0x8, addend: 0x0, symName: __ZNSt3__112basic_stringIcNS_11char_traitsIcEENS_9allocatorIcEEE17__assign_externalEPKcm, symObjAddr: 0x272A, symBinAddr: 0x10000338C, symSize: 0xA2 }
  - { offset: 0x23795, size: 0x8, addend: 0x0, symName: __ZL14parse_opc_partP20OPC_CONTAINER_STRUCTPh, symObjAddr: 0x17AA, symBinAddr: 0x10000241A, symSize: 0x1EE }
  - { offset: 0x24483, size: 0x8, addend: 0x0, symName: __ZNSt3__16vectorI9ParagraphNS_9allocatorIS1_EEE16__init_with_sizeB8ne180100IPS1_S6_EEvT_T0_m, symObjAddr: 0x2C3C, symBinAddr: 0x10000389E, symSize: 0x72 }
  - { offset: 0x24702, size: 0x8, addend: 0x0, symName: __ZNSt3__16vectorI4PageNS_9allocatorIS1_EEE21__push_back_slow_pathIRKS1_EEPS1_OT_, symObjAddr: 0x2B1E, symBinAddr: 0x100003780, symSize: 0x11E }
  - { offset: 0x24A8C, size: 0x8, addend: 0x0, symName: __ZL16process_documentP8_xmlNodeR8DocumentPKc13document_type, symObjAddr: 0x1998, symBinAddr: 0x100002608, symSize: 0x4BC }
  - { offset: 0x26044, size: 0x8, addend: 0x0, symName: __ZL16document_to_jsonR8DocumentRNSt3__112basic_stringIcNS1_11char_traitsIcEENS1_9allocatorIcEEEE, symObjAddr: 0x1E54, symBinAddr: 0x100002AC4, symSize: 0x3D6 }
  - { offset: 0x26ABF, size: 0x8, addend: 0x0, symName: __ZNSt3__16vectorI9ParagraphNS_9allocatorIS1_EEE16__destroy_vectorclB8ne180100Ev, symObjAddr: 0x3134, symBinAddr: 0x100003D5E, symSize: 0x60 }
  - { offset: 0x26CE8, size: 0x8, addend: 0x0, symName: __ZL19xml_get_text_concatP8_xmlNodePKc, symObjAddr: 0x222A, symBinAddr: 0x100002E9A, symSize: 0x24C }
  - { offset: 0x27C8A, size: 0x8, addend: 0x0, symName: __ZNSt3__16vectorIcNS_9allocatorIcEEEC2Em, symObjAddr: 0x3A94, symBinAddr: 0x1000045B2, symSize: 0x64 }
  - { offset: 0x27F2C, size: 0x8, addend: 0x0, symName: __ZNSt3__112basic_stringIcNS_11char_traitsIcEENS_9allocatorIcEEEC2B8ne180100ILi0EEEPKc, symObjAddr: 0x3B3E, symBinAddr: 0x10000465C, symSize: 0x93 }
  - { offset: 0x28338, size: 0x8, addend: 0x0, symName: __ZL16find_first_childP8_xmlNodePKc, symObjAddr: 0x3BD1, symBinAddr: 0x1000046EF, symSize: 0x3D }
  - { offset: 0x28367, size: 0x8, addend: 0x0, symName: __ZNSt3__16vectorI9ParagraphNS_9allocatorIS1_EEE22__construct_one_at_endB8ne180100IJRKS1_EEEvDpOT_, symObjAddr: 0x33AE, symBinAddr: 0x100003FA0, symSize: 0x60 }
  - { offset: 0x2858D, size: 0x8, addend: 0x0, symName: __ZNSt3__16vectorI9ParagraphNS_9allocatorIS1_EEE21__push_back_slow_pathIRKS1_EEPS1_OT_, symObjAddr: 0x340E, symBinAddr: 0x100004000, symSize: 0x11E }
  - { offset: 0x2893A, size: 0x8, addend: 0x0, symName: __ZNSt3__112basic_stringIcNS_11char_traitsIcEENS_9allocatorIcEEE17__assign_externalEPKc, symObjAddr: 0x27CC, symBinAddr: 0x10000342E, symSize: 0x28 }
  - { offset: 0x289CF, size: 0x8, addend: 0x0, symName: __ZL16find_first_childP8_xmlNodePKc, symObjAddr: 0x3BD1, symBinAddr: 0x1000046EF, symSize: 0x3D }
  - { offset: 0x28A74, size: 0x8, addend: 0x0, symName: __ZNSt3__112basic_stringIcNS_11char_traitsIcEENS_9allocatorIcEEE25__init_copy_ctor_externalEPKcm, symObjAddr: 0x2F92, symBinAddr: 0x100003BBC, symSize: 0x84 }
  - { offset: 0x28E5B, size: 0x8, addend: 0x0, symName: __ZNSt3__16vectorI3RunNS_9allocatorIS1_EEE16__destroy_vectorclB8ne180100Ev, symObjAddr: 0x3064, symBinAddr: 0x100003C8E, symSize: 0x32 }
  - { offset: 0x28F42, size: 0x8, addend: 0x0, symName: __ZNSt3__114__split_bufferI3RunRNS_9allocatorIS1_EEED2Ev, symObjAddr: 0x3820, symBinAddr: 0x100004412, symSize: 0x28 }
  - { offset: 0x290E1, size: 0x8, addend: 0x0, symName: __ZNSt3__16vectorI4PageNS_9allocatorIS1_EEE16__destroy_vectorclB8ne180100Ev, symObjAddr: 0x3C82, symBinAddr: 0x10000472C, symSize: 0x5F }
  - { offset: 0x292F3, size: 0x8, addend: 0x0, symName: __ZNKSt3__16vectorIP8_xmlNodeNS_9allocatorIS2_EEE20__throw_length_errorB8ne180100Ev, symObjAddr: 0x3886, symBinAddr: 0x100004478, symSize: 0x10 }
  - { offset: 0x2931C, size: 0x8, addend: 0x0, symName: __ZNSt3__119__allocate_at_leastB8ne180100INS_9allocatorIP8_xmlNodeEEEENS_19__allocation_resultINS_16allocator_traitsIT_E7pointerEEERS7_m, symObjAddr: 0x3896, symBinAddr: 0x100004488, symSize: 0x2E }
  - { offset: 0x2934E, size: 0x8, addend: 0x0, symName: __ZNKSt3__16vectorI3RunNS_9allocatorIS1_EEE20__throw_length_errorB8ne180100Ev, symObjAddr: 0x2EA6, symBinAddr: 0x100003B08, symSize: 0x10 }
  - { offset: 0x29382, size: 0x8, addend: 0x0, symName: __ZNKSt3__16vectorINS_12basic_stringIcNS_11char_traitsIcEENS_9allocatorIcEEEENS4_IS6_EEE20__throw_length_errorB8ne180100Ev, symObjAddr: 0x3996, symBinAddr: 0x100004588, symSize: 0x10 }
  - { offset: 0x293B6, size: 0x8, addend: 0x0, symName: __ZN8DocumentD1Ev, symObjAddr: 0x2476, symBinAddr: 0x1000030E6, symSize: 0x2E }
  - { offset: 0x299DE, size: 0x8, addend: 0x0, symName: __ZNSt3__16vectorIhNS_9allocatorIhEEE7reserveEm, symObjAddr: 0x2804, symBinAddr: 0x100003466, symSize: 0x9A }
  - { offset: 0x29D93, size: 0x8, addend: 0x0, symName: __ZNSt3__16vectorIhNS_9allocatorIhEEEC2Em, symObjAddr: 0x24A4, symBinAddr: 0x100003114, symSize: 0x64 }
  - { offset: 0x2A04D, size: 0x8, addend: 0x0, symName: __ZNSt3__16vectorIhNS_9allocatorIhEEE18__insert_with_sizeB8ne180100INS_11__wrap_iterIPhEES7_EES7_NS5_IPKhEET_T0_l, symObjAddr: 0x289E, symBinAddr: 0x100003500, symSize: 0x220 }
  - { offset: 0x2ADAE, size: 0x8, addend: 0x0, symName: __ZNKSt3__16vectorIhNS_9allocatorIhEEE20__throw_length_errorB8ne180100Ev, symObjAddr: 0x253E, symBinAddr: 0x1000031AE, symSize: 0x10 }
  - { offset: 0x2ADF8, size: 0x8, addend: 0x0, symName: __ZNSt3__16vectorI4PageNS_9allocatorIS1_EEE22__construct_one_at_endB8ne180100IJRKS1_EEEvDpOT_, symObjAddr: 0x2ABE, symBinAddr: 0x100003720, symSize: 0x60 }
  - { offset: 0x2B321, size: 0x8, addend: 0x0, symName: __ZNSt3__16vectorIhNS_9allocatorIhEEE11__vallocateB8ne180100Em, symObjAddr: 0x2508, symBinAddr: 0x100003178, symSize: 0x36 }
  - { offset: 0x2B406, size: 0x8, addend: 0x0, symName: __ZNSt12length_errorC1B8ne180100EPKc, symObjAddr: 0x25A8, symBinAddr: 0x10000320A, symSize: 0x23 }
  - { offset: 0x2B5E3, size: 0x8, addend: 0x0, symName: __ZNSt3__112basic_stringIcNS_11char_traitsIcEENS_9allocatorIcEEE17__assign_externalEPKcm, symObjAddr: 0x272A, symBinAddr: 0x10000338C, symSize: 0xA2 }
  - { offset: 0x2B8C3, size: 0x8, addend: 0x0, symName: __ZNKSt3__112basic_stringIcNS_11char_traitsIcEENS_9allocatorIcEEE20__throw_length_errorB8ne180100Ev, symObjAddr: 0x27F4, symBinAddr: 0x100003456, symSize: 0x10 }
  - { offset: 0x2B8EC, size: 0x8, addend: 0x0, symName: __ZNSt3__16vectorIhNS_9allocatorIhEEE7reserveEm, symObjAddr: 0x2804, symBinAddr: 0x100003466, symSize: 0x9A }
  - { offset: 0x2BE18, size: 0x8, addend: 0x0, symName: __ZNSt3__114__split_bufferI4PageRNS_9allocatorIS1_EEED2Ev, symObjAddr: 0x3344, symBinAddr: 0x100003F36, symSize: 0x24 }
  - { offset: 0x2BEC8, size: 0x8, addend: 0x0, symName: __ZNKSt3__16vectorI4PageNS_9allocatorIS1_EEE20__throw_length_errorB8ne180100Ev, symObjAddr: 0x320E, symBinAddr: 0x100003E38, symSize: 0x10 }
  - { offset: 0x2C0C7, size: 0x8, addend: 0x0, symName: __ZNSt3__16vectorI9ParagraphNS_9allocatorIS1_EEE11__vallocateB8ne180100Em, symObjAddr: 0x2CAE, symBinAddr: 0x100003910, symSize: 0x44 }
  - { offset: 0x2C153, size: 0x8, addend: 0x0, symName: __ZNKSt3__16vectorI9ParagraphNS_9allocatorIS1_EEE20__throw_length_errorB8ne180100Ev, symObjAddr: 0x2CF2, symBinAddr: 0x100003954, symSize: 0x10 }
  - { offset: 0x2C17C, size: 0x8, addend: 0x0, symName: __ZNSt3__119__allocate_at_leastB8ne180100INS_9allocatorI9ParagraphEEEENS_19__allocation_resultINS_16allocator_traitsIT_E7pointerEEERS6_m, symObjAddr: 0x2D02, symBinAddr: 0x100003964, symSize: 0x38 }
  - { offset: 0x2C2FE, size: 0x8, addend: 0x0, symName: __ZNSt3__16vectorI3RunNS_9allocatorIS1_EEE16__init_with_sizeB8ne180100IPS1_S6_EEvT_T0_m, symObjAddr: 0x2DF0, symBinAddr: 0x100003A52, symSize: 0x72 }
  - { offset: 0x2C57D, size: 0x8, addend: 0x0, symName: __ZNSt3__128__exception_guard_exceptionsINS_29_AllocatorDestroyRangeReverseINS_9allocatorI9ParagraphEEPS3_EEED2B8ne180100Ev, symObjAddr: 0x30D8, symBinAddr: 0x100003D02, symSize: 0x1A }
  - { offset: 0x2C72A, size: 0x8, addend: 0x0, symName: __ZNSt3__16vectorI3RunNS_9allocatorIS1_EEE11__vallocateB8ne180100Em, symObjAddr: 0x2E62, symBinAddr: 0x100003AC4, symSize: 0x44 }
  - { offset: 0x2C8DD, size: 0x8, addend: 0x0, symName: __ZNSt3__128__exception_guard_exceptionsINS_29_AllocatorDestroyRangeReverseINS_9allocatorI3RunEEPS3_EEED2B8ne180100Ev, symObjAddr: 0x3016, symBinAddr: 0x100003C40, symSize: 0x1A }
  - { offset: 0x2CA7E, size: 0x8, addend: 0x0, symName: __ZNKSt3__129_AllocatorDestroyRangeReverseINS_9allocatorI3RunEEPS2_EclB8ne180100Ev, symObjAddr: 0x3030, symBinAddr: 0x100003C5A, symSize: 0x34 }
  - { offset: 0x2CCD4, size: 0x8, addend: 0x0, symName: __ZNSt3__16vectorI3RunNS_9allocatorIS1_EEE22__base_destruct_at_endB8ne180100EPS1_, symObjAddr: 0x3096, symBinAddr: 0x100003CC0, symSize: 0x42 }
  - { offset: 0x2CE7B, size: 0x8, addend: 0x0, symName: __ZNKSt3__129_AllocatorDestroyRangeReverseINS_9allocatorI9ParagraphEEPS2_EclB8ne180100Ev, symObjAddr: 0x30F2, symBinAddr: 0x100003D1C, symSize: 0x42 }
  - { offset: 0x2D37F, size: 0x8, addend: 0x0, symName: __ZNSt3__128__exception_guard_exceptionsINS_29_AllocatorDestroyRangeReverseINS_9allocatorI4PageEENS_16reverse_iteratorIPS3_EEEEED2B8ne180100Ev, symObjAddr: 0x32E6, symBinAddr: 0x100003ED8, symSize: 0x1A }
  - { offset: 0x2D3B7, size: 0x8, addend: 0x0, symName: __ZNKSt3__129_AllocatorDestroyRangeReverseINS_9allocatorI4PageEENS_16reverse_iteratorIPS2_EEEclB8ne180100Ev, symObjAddr: 0x3300, symBinAddr: 0x100003EF2, symSize: 0x44 }
  - { offset: 0x2D60E, size: 0x8, addend: 0x0, symName: __ZNSt3__114__split_bufferI4PageRNS_9allocatorIS1_EEE5clearB8ne180100Ev, symObjAddr: 0x3368, symBinAddr: 0x100003F5A, symSize: 0x46 }
  - { offset: 0x2D9C7, size: 0x8, addend: 0x0, symName: __ZNSt3__114__split_bufferI9ParagraphRNS_9allocatorIS1_EEED2Ev, symObjAddr: 0x3694, symBinAddr: 0x100004286, symSize: 0x24 }
  - { offset: 0x2DC0A, size: 0x8, addend: 0x0, symName: __ZNSt3__128__exception_guard_exceptionsINS_29_AllocatorDestroyRangeReverseINS_9allocatorI9ParagraphEENS_16reverse_iteratorIPS3_EEEEED2B8ne180100Ev, symObjAddr: 0x3636, symBinAddr: 0x100004228, symSize: 0x1A }
  - { offset: 0x2DC42, size: 0x8, addend: 0x0, symName: __ZNKSt3__129_AllocatorDestroyRangeReverseINS_9allocatorI9ParagraphEENS_16reverse_iteratorIPS2_EEEclB8ne180100Ev, symObjAddr: 0x3650, symBinAddr: 0x100004242, symSize: 0x44 }
  - { offset: 0x2DE1A, size: 0x8, addend: 0x0, symName: __ZNSt3__114__split_bufferI9ParagraphRNS_9allocatorIS1_EEE5clearB8ne180100Ev, symObjAddr: 0x36B8, symBinAddr: 0x1000042AA, symSize: 0x46 }
  - { offset: 0x2E067, size: 0x8, addend: 0x0, symName: __ZNSt3__128__exception_guard_exceptionsINS_29_AllocatorDestroyRangeReverseINS_9allocatorI3RunEENS_16reverse_iteratorIPS3_EEEEED2B8ne180100Ev, symObjAddr: 0x37D0, symBinAddr: 0x1000043C2, symSize: 0x1A }
  - { offset: 0x2E09F, size: 0x8, addend: 0x0, symName: __ZNKSt3__129_AllocatorDestroyRangeReverseINS_9allocatorI3RunEENS_16reverse_iteratorIPS2_EEEclB8ne180100Ev, symObjAddr: 0x37EA, symBinAddr: 0x1000043DC, symSize: 0x36 }
  - { offset: 0x2E318, size: 0x8, addend: 0x0, symName: __ZNSt3__114__split_bufferI3RunRNS_9allocatorIS1_EEE17__destruct_at_endB8ne180100EPS1_, symObjAddr: 0x3848, symBinAddr: 0x10000443A, symSize: 0x3E }
  - { offset: 0x2E5BA, size: 0x8, addend: 0x0, symName: __ZNSt3__128__exception_guard_exceptionsINS_29_AllocatorDestroyRangeReverseINS_9allocatorINS_12basic_stringIcNS_11char_traitsIcEENS2_IcEEEEEENS_16reverse_iteratorIPS7_EEEEED2B8ne180100Ev, symObjAddr: 0x39DE, symBinAddr: 0x100004598, symSize: 0x1A }
  - { offset: 0x2EA54, size: 0x8, addend: 0x0, symName: __ZNSt3__16vectorIcNS_9allocatorIcEEE11__vallocateB8ne180100Em, symObjAddr: 0x3AF8, symBinAddr: 0x100004616, symSize: 0x36 }
  - { offset: 0x2EB39, size: 0x8, addend: 0x0, symName: __ZNKSt3__16vectorIcNS_9allocatorIcEEE20__throw_length_errorB8ne180100Ev, symObjAddr: 0x3B2E, symBinAddr: 0x10000464C, symSize: 0x10 }
  - { offset: 0x2EB62, size: 0x8, addend: 0x0, symName: __ZNSt3__112basic_stringIcNS_11char_traitsIcEENS_9allocatorIcEEEC2B8ne180100ILi0EEEPKc, symObjAddr: 0x3B3E, symBinAddr: 0x10000465C, symSize: 0x93 }
  - { offset: 0x2EF14, size: 0x8, addend: 0x0, symName: __ZNSt3__112basic_stringIcNS_11char_traitsIcEENS_9allocatorIcEEEC2B8ne180100Emc, symObjAddr: 0x3F3C, symBinAddr: 0x1000049E6, symSize: 0x8C }
...
